; Function Attrs: nounwind uwtable
define internal noundef i32 @ast_write_packet(ptr noundef readonly captures(none) %0, ptr noundef readonly captures(none) %1) #0 {
  %3 = getelementptr inbounds nuw i8, ptr %0, i64 32
  %4 = load ptr, ptr %3, align 8, !tbaa !24
  %5 = getelementptr inbounds nuw i8, ptr %0, i64 48
  %6 = load ptr, ptr %5, align 8, !tbaa !25
  %7 = load ptr, ptr %6, align 8, !tbaa !26
  %8 = getelementptr inbounds nuw i8, ptr %7, i64 16
  %9 = load ptr, ptr %8, align 8, !tbaa !28
  %10 = getelementptr inbounds nuw i8, ptr %1, i64 32
  %11 = load i32, ptr %10, align 8, !tbaa !45
  %12 = getelementptr inbounds nuw i8, ptr %9, i64 132
  %13 = load i32, ptr %12, align 4, !tbaa !43
  %14 = sdiv i32 %11, %13
  %15 = getelementptr inbounds nuw i8, ptr %7, i64 56
  %16 = load i64, ptr %15, align 8, !tbaa !46
  %17 = icmp eq i64 %16, 0
  br i1 %17, label %18, label %22

18:                                               ; preds = %2
  %19 = getelementptr inbounds nuw i8, ptr %0, i64 24
  %20 = load ptr, ptr %19, align 8, !tbaa !4
  %21 = getelementptr inbounds nuw i8, ptr %20, i64 40
  store i32 %14, ptr %21, align 8, !tbaa !47
  br label %22

22:                                               ; preds = %18, %2
  tail call void @avio_wl32(ptr noundef %4, i32 noundef 1262701634) #3
  tail call void @avio_wb32(ptr noundef %4, i32 noundef %14) #3
  tail call void @ffio_fill(ptr noundef %4, i32 noundef 0, i64 noundef 24) #3
  %23 = getelementptr inbounds nuw i8, ptr %1, i64 24
  %24 = load ptr, ptr %23, align 8, !tbaa !48
  %25 = load i32, ptr %10, align 8, !tbaa !45
  tail call void @avio_write(ptr noundef %4, ptr noundef %24, i32 noundef %25) #3
  ret i32 0
}